target datalayout = "e-m:e-p270:32:32-p271:32:32-p272:64:64-i64:64-i128:128-f80:128-n8:16:32:64-S128"
target triple = "x86_64-pc-linux-gnu"

%struct.expert_field = type { i32, i32 }
%struct._packet_info = type { ptr, ptr, i32, i32, %struct.nstime_t, %struct.nstime_t, %struct.nstime_t, i8, ptr, ptr, ptr, ptr, %struct._address, %struct._address, %struct._address, %struct._address, %struct._address, %struct._address, i32, ptr, i8, [3 x i8], %struct.anon, i32, i32, i32, i32, ptr, i8, ptr, ptr, i16, i16, i32, i32, i16, i32, i32, ptr, ptr, ptr, i8, i8, i16, i16, i16, i32, i16, i16, ptr, ptr, ptr, ptr, ptr, i32, i32 }
%struct.nstime_t = type { i64, i32 }
%struct._address = type { i32, i32, ptr, ptr }
%struct.anon = type { i8, [3 x i8] }

@hf_ciev_indicator_index = internal global i32 0, align 4
@hf_indicator = internal global [20 x i32] zeroinitializer, align 16
@ei_ciev_indicator = internal global %struct.expert_field zeroinitializer, align 4

; Function Attrs: alwaysinline nounwind
define internal ptr @memcpy.inline(ptr noalias %0, ptr noalias %1, i64 %2) #5 {
  %4 = alloca ptr, align 8
  %5 = alloca ptr, align 8
  %6 = alloca i64, align 8
  store ptr %0, ptr %4, align 8
  store ptr %1, ptr %5, align 8
  store i64 %2, ptr %6, align 8
  %7 = load ptr, ptr %4, align 8
  %8 = load ptr, ptr %5, align 8
  %9 = load i64, ptr %6, align 8
  %10 = load ptr, ptr %4, align 8
  %11 = call i64 @llvm.objectsize.i64.p0(ptr %10, i1 false, i1 true, i1 true)
  %12 = call ptr @__memcpy_chk(ptr noundef %7, ptr noundef %8, i64 noundef %9, i64 noundef %11) #11
  ret ptr %12
}

; Function Attrs: null_pointer_is_valid sspstrong uwtable
define internal i32 @get_uint_parameter(ptr noundef %0, i32 noundef %1) #0 {
  %3 = alloca ptr, align 8
  %4 = alloca i32, align 4
  %5 = alloca i32, align 4
  %6 = alloca ptr, align 8
  store ptr %0, ptr %3, align 8
  store i32 %1, ptr %4, align 4
  call void @llvm.lifetime.start.p0(i64 4, ptr %5) #11
  call void @llvm.lifetime.start.p0(i64 8, ptr %6) #11
  %7 = call ptr @wmem_packet_scope()
  %8 = load i32, ptr %4, align 4
  %9 = add i32 %8, 1
  %10 = sext i32 %9 to i64
  %11 = call noalias ptr @wmem_alloc(ptr noundef %7, i64 noundef %10) #12
  store ptr %11, ptr %6, align 8
  %12 = load ptr, ptr %6, align 8
  %13 = load ptr, ptr %3, align 8
  %14 = load i32, ptr %4, align 4
  %15 = sext i32 %14 to i64
  %16 = call ptr @memcpy.inline(ptr noundef %12, ptr noundef %13, i64 noundef %15) #11
  %17 = load ptr, ptr %6, align 8
  %18 = load i32, ptr %4, align 4
  %19 = sext i32 %18 to i64
  %20 = getelementptr i8, ptr %17, i64 %19
  store i8 0, ptr %20, align 1
  %21 = load ptr, ptr %6, align 8
  %22 = call i64 @g_ascii_strtoull(ptr noundef %21, ptr noundef null, i32 noundef 10)
  %23 = trunc i64 %22 to i32
  store i32 %23, ptr %5, align 4
  %24 = load i32, ptr %5, align 4
  call void @llvm.lifetime.end.p0(i64 8, ptr %6) #11
  call void @llvm.lifetime.end.p0(i64 4, ptr %5) #11
  ret i32 %24
}

; Function Attrs: null_pointer_is_valid sspstrong uwtable
define internal zeroext i1 @dissect_ciev_parameter(ptr noundef %0, ptr noundef %1, ptr noundef %2, i32 noundef %3, i32 noundef %4, i16 noundef zeroext %5, ptr noundef %6, i32 noundef %7, i32 noundef %8, ptr noundef %9) #0 {
  %11 = alloca i1, align 1
  %12 = alloca ptr, align 8
  %13 = alloca ptr, align 8
  %14 = alloca ptr, align 8
  %15 = alloca i32, align 4
  %16 = alloca i32, align 4
  %17 = alloca i16, align 2
  %18 = alloca ptr, align 8
  %19 = alloca i32, align 4
  %20 = alloca i32, align 4
  %21 = alloca ptr, align 8
  %22 = alloca i32, align 4
  %23 = alloca i32, align 4
  %24 = alloca i32, align 4
  store ptr %0, ptr %12, align 8
  store ptr %1, ptr %13, align 8
  store ptr %2, ptr %14, align 8
  store i32 %3, ptr %15, align 4
  store i32 %4, ptr %16, align 4
  store i16 %5, ptr %17, align 2
  store ptr %6, ptr %18, align 8
  store i32 %7, ptr %19, align 4
  store i32 %8, ptr %20, align 4
  store ptr %9, ptr %21, align 8
  call void @llvm.lifetime.start.p0(i64 4, ptr %22) #11
  call void @llvm.lifetime.start.p0(i64 4, ptr %23) #11
  %25 = load i32, ptr %16, align 4
  %26 = icmp eq i32 %25, 1
  br i1 %26, label %27, label %31

27:                                               ; preds = %10
  %28 = load i16, ptr %17, align 2
  %29 = zext i16 %28 to i32
  %30 = icmp eq i32 %29, 58
  br i1 %30, label %32, label %31

31:                                               ; preds = %27, %10
  store i1 true, ptr %11, align 1
  store i32 1, ptr %24, align 4
  br label %83

32:                                               ; preds = %27
  %33 = load i32, ptr %19, align 4
  %34 = icmp ugt i32 %33, 1
  br i1 %34, label %35, label %36

35:                                               ; preds = %32
  store i1 false, ptr %11, align 1
  store i32 1, ptr %24, align 4
  br label %83

36:                                               ; preds = %32
  %37 = load i32, ptr %19, align 4
  switch i32 %37, label %82 [
    i32 0, label %38
    i32 1, label %57
  ]

38:                                               ; preds = %36
  %39 = load ptr, ptr %18, align 8
  %40 = load i32, ptr %20, align 4
  %41 = call i32 @get_uint_parameter(ptr noundef %39, i32 noundef %40)
  store i32 %41, ptr %22, align 4
  %42 = load ptr, ptr %14, align 8
  %43 = load i32, ptr @hf_ciev_indicator_index, align 4
  %44 = load ptr, ptr %12, align 8
  %45 = load i32, ptr %15, align 4
  %46 = load i32, ptr %20, align 4
  %47 = load i32, ptr %22, align 4
  %48 = call ptr @proto_tree_add_uint(ptr noundef %42, i32 noundef %43, ptr noundef %44, i32 noundef %45, i32 noundef %46, i32 noundef %47)
  %49 = load ptr, ptr %13, align 8
  %50 = getelementptr inbounds nuw %struct._packet_info, ptr %49, i32 0, i32 51
  %51 = load ptr, ptr %50, align 8
  %52 = call noalias ptr @wmem_alloc(ptr noundef %51, i64 noundef 4) #12
  %53 = load ptr, ptr %21, align 8
  store ptr %52, ptr %53, align 8
  %54 = load i32, ptr %22, align 4
  %55 = load ptr, ptr %21, align 8
  %56 = load ptr, ptr %55, align 8
  store i32 %54, ptr %56, align 4
  br label %82

57:                                               ; preds = %36
  %58 = load ptr, ptr %21, align 8
  %59 = load ptr, ptr %58, align 8
  %60 = load i32, ptr %59, align 4
  %61 = sub i32 %60, 1
  store i32 %61, ptr %23, align 4
  %62 = load i32, ptr %23, align 4
  %63 = icmp ugt i32 %62, 19
  br i1 %63, label %64, label %71

64:                                               ; preds = %57
  %65 = load ptr, ptr %14, align 8
  %66 = load ptr, ptr %13, align 8
  %67 = load ptr, ptr %12, align 8
  %68 = load i32, ptr %15, align 4
  %69 = load i32, ptr %20, align 4
  %70 = call ptr @proto_tree_add_expert(ptr noundef %65, ptr noundef %66, ptr noundef @ei_ciev_indicator, ptr noundef %67, i32 noundef %68, i32 noundef %69)
  br label %81

71:                                               ; preds = %57
  %72 = load ptr, ptr %14, align 8
  %73 = load i32, ptr %23, align 4
  %74 = zext i32 %73 to i64
  %75 = getelementptr [20 x i32], ptr @hf_indicator, i64 0, i64 %74
  %76 = load i32, ptr %75, align 4
  %77 = load ptr, ptr %12, align 8
  %78 = load i32, ptr %15, align 4
  %79 = load i32, ptr %20, align 4
  %80 = call ptr @proto_tree_add_item(ptr noundef %72, i32 noundef %76, ptr noundef %77, i32 noundef %78, i32 noundef %79, i32 noundef 0)
  br label %81

81:                                               ; preds = %71, %64
  br label %82

82:                                               ; preds = %36, %81, %38
  store i1 true, ptr %11, align 1
  store i32 1, ptr %24, align 4
  br label %83

83:                                               ; preds = %82, %35, %31
  call void @llvm.lifetime.end.p0(i64 4, ptr %23) #11
  call void @llvm.lifetime.end.p0(i64 4, ptr %22) #11
  %84 = load i1, ptr %11, align 1
  ret i1 %84
}