; Function Attrs: null_pointer_is_valid sspstrong uwtable
define internal noundef zeroext i1 @dissect_ciev_parameter(ptr noundef %0, ptr noundef %1, ptr noundef %2, i32 noundef %3, i32 noundef %4, i16 noundef zeroext %5, ptr noundef readonly captures(none) %6, i32 noundef %7, i32 noundef %8, ptr noundef captures(none) %9) #0 {
  %11 = icmp eq i32 %4, 1
  %12 = icmp eq i16 %5, 58
  %or.cond = and i1 %11, %12
  br i1 %or.cond, label %13, label %44

13:                                               ; preds = %10
  %14 = icmp ugt i32 %7, 1
  br i1 %14, label %44, label %15

15:                                               ; preds = %13
  %trunc = trunc nuw i32 %7 to i1
  br i1 %trunc, label %32, label %16

16:                                               ; preds = %15
  %17 = tail call ptr @wmem_packet_scope()
  %18 = add i32 %8, 1
  %19 = sext i32 %18 to i64
  %20 = tail call noalias ptr @wmem_alloc(ptr noundef %17, i64 noundef %19) #11
  %21 = sext i32 %8 to i64
  %22 = icmp ne i32 %18, -1
  tail call void @llvm.assume(i1 %22)
  %23 = tail call ptr @__memcpy_chk(ptr noundef %20, ptr noundef readonly %6, i64 noundef range(i64 -2147483648, 4294967296) %21, i64 noundef %19) #10, !alias.scope !169
  %24 = getelementptr i8, ptr %20, i64 %21
  store i8 0, ptr %24, align 1
  %25 = tail call i64 @g_ascii_strtoull(ptr noundef %20, ptr noundef null, i32 noundef 10)
  %26 = trunc i64 %25 to i32
  %27 = load i32, ptr @hf_ciev_indicator_index, align 4
  %28 = tail call ptr @proto_tree_add_uint(ptr noundef %2, i32 noundef %27, ptr noundef %0, i32 noundef %3, i32 noundef %8, i32 noundef %26)
  %29 = getelementptr inbounds nuw i8, ptr %1, i64 408
  %30 = load ptr, ptr %29, align 8
  %31 = tail call noalias dereferenceable_or_null(4) ptr @wmem_alloc(ptr noundef %30, i64 noundef 4) #11
  store ptr %31, ptr %9, align 8
  store i32 %26, ptr %31, align 4
  br label %44

32:                                               ; preds = %15
  %33 = load ptr, ptr %9, align 8
  %34 = load i32, ptr %33, align 4
  %35 = add i32 %34, -1
  %36 = icmp ugt i32 %35, 19
  br i1 %36, label %37, label %39

37:                                               ; preds = %32
  %38 = tail call ptr @proto_tree_add_expert(ptr noundef %2, ptr noundef %1, ptr noundef nonnull @ei_ciev_indicator, ptr noundef %0, i32 noundef %3, i32 noundef %8)
  br label %44

39:                                               ; preds = %32
  %40 = zext nneg i32 %35 to i64
  %41 = getelementptr [20 x i32], ptr @hf_indicator, i64 0, i64 %40
  %42 = load i32, ptr %41, align 4
  %43 = tail call ptr @proto_tree_add_item(ptr noundef %2, i32 noundef %42, ptr noundef %0, i32 noundef %3, i32 noundef %8, i32 noundef 0)
  br label %44

44:                                               ; preds = %16, %39, %37, %13, %10
  %.0 = phi i1 [ true, %10 ], [ false, %13 ], [ true, %37 ], [ true, %39 ], [ true, %16 ]
  ret i1 %.0
}